; Function Attrs: nounwind uwtable
define i32 @av_channel_layout_channel_from_string(ptr noundef readonly captures(none) %0, ptr noundef %1) local_unnamed_addr #0 {
  %3 = tail call i32 @av_channel_layout_index_from_string(ptr noundef %0, ptr noundef %1)
  %4 = icmp slt i32 %3, 0
  br i1 %4, label %7, label %5

5:                                                ; preds = %2
  %6 = tail call i32 @av_channel_layout_channel_from_index(ptr noundef %0, i32 noundef %3)
  br label %7

7:                                                ; preds = %2, %5
  %.0 = phi i32 [ %6, %5 ], [ -1, %2 ]
  ret i32 %.0
}